; Function Attrs: mustprogress nounwind uwtable
define hidden noundef ptr @_ZN8IdealKit15delay_transformEP4Node(ptr nocapture noundef nonnull readonly align 8 dereferenceable(64) %0, ptr noundef returned %1) local_unnamed_addr #0 align 2 {
  %3 = getelementptr inbounds i8, ptr %0, i64 8
  %4 = load ptr, ptr %3, align 8
  %5 = load ptr, ptr %1, align 8
  %6 = getelementptr inbounds i8, ptr %5, i64 40
  %7 = load ptr, ptr %6, align 8
  %8 = tail call noundef ptr %7(ptr noundef nonnull align 8 dereferenceable(52) %1) #6
  %9 = getelementptr inbounds i8, ptr %4, i64 40
  %10 = load ptr, ptr %9, align 8
  %11 = getelementptr inbounds i8, ptr %1, i64 40
  %12 = load i32, ptr %11, align 8
  %13 = getelementptr inbounds i8, ptr %10, i64 8
  %14 = load i32, ptr %13, align 8
  %.not.i.i = icmp ugt i32 %14, %12
  br i1 %.not.i.i, label %_ZN11PhaseValues8set_typeEPK4NodePK4Type.exit, label %15

15:                                               ; preds = %2
  tail call void @_ZN10Type_Array4growEj(ptr noundef nonnull align 8 dereferenceable(24) %10, i32 noundef %12) #6
  br label %_ZN11PhaseValues8set_typeEPK4NodePK4Type.exit

_ZN11PhaseValues8set_typeEPK4NodePK4Type.exit:    ; preds = %2, %15
  %16 = getelementptr inbounds i8, ptr %10, i64 16
  %17 = load ptr, ptr %16, align 8
  %18 = zext i32 %12 to i64
  %19 = getelementptr inbounds ptr, ptr %17, i64 %18
  store ptr %8, ptr %19, align 8
  %20 = load ptr, ptr %0, align 8
  %21 = getelementptr inbounds i8, ptr %20, i64 1960
  %22 = load ptr, ptr %21, align 8
  %23 = getelementptr inbounds i8, ptr %22, i64 32
  %24 = load i32, ptr %11, align 8
  %25 = lshr i32 %24, 5
  %26 = load i32, ptr %23, align 8
  %.not.i.i.i = icmp ult i32 %25, %26
  br i1 %.not.i.i.i, label %_ZN9VectorSet8test_setEj.exit.i.i, label %27

27:                                               ; preds = %_ZN11PhaseValues8set_typeEPK4NodePK4Type.exit
  tail call void @_ZN9VectorSet4growEj(ptr noundef nonnull align 8 dereferenceable(32) %23, i32 noundef %25) #6
  br label %_ZN9VectorSet8test_setEj.exit.i.i

_ZN9VectorSet8test_setEj.exit.i.i:                ; preds = %27, %_ZN11PhaseValues8set_typeEPK4NodePK4Type.exit
  %28 = and i32 %24, 31
  %29 = shl nuw i32 1, %28
  %30 = getelementptr inbounds i8, ptr %22, i64 40
  %31 = load ptr, ptr %30, align 8
  %32 = zext nneg i32 %25 to i64
  %33 = getelementptr inbounds i32, ptr %31, i64 %32
  %34 = load i32, ptr %33, align 4
  %35 = or i32 %34, %29
  store i32 %35, ptr %33, align 4
  %36 = and i32 %34, %29
  %.not.i.i5 = icmp eq i32 %36, 0
  br i1 %.not.i.i5, label %37, label %_ZN7Compile15record_for_igvnEP4Node.exit

37:                                               ; preds = %_ZN9VectorSet8test_setEj.exit.i.i
  %38 = getelementptr inbounds i8, ptr %22, i64 24
  %39 = load i32, ptr %38, align 8
  %40 = add i32 %39, 1
  store i32 %40, ptr %38, align 8
  %41 = getelementptr inbounds i8, ptr %22, i64 8
  %42 = load i32, ptr %41, align 8
  %.not.i.i.i.i = icmp ugt i32 %42, %39
  br i1 %.not.i.i.i.i, label %_ZN9Node_List4pushEP4Node.exit.i.i, label %43

43:                                               ; preds = %37
  tail call void @_ZN10Node_Array4growEj(ptr noundef nonnull align 8 dereferenceable(24) %22, i32 noundef %39) #6
  br label %_ZN9Node_List4pushEP4Node.exit.i.i

_ZN9Node_List4pushEP4Node.exit.i.i:               ; preds = %43, %37
  %44 = getelementptr inbounds i8, ptr %22, i64 16
  %45 = load ptr, ptr %44, align 8
  %46 = zext i32 %39 to i64
  %47 = getelementptr inbounds ptr, ptr %45, i64 %46
  store ptr %1, ptr %47, align 8
  br label %_ZN7Compile15record_for_igvnEP4Node.exit

_ZN7Compile15record_for_igvnEP4Node.exit:         ; preds = %_ZN9VectorSet8test_setEj.exit.i.i, %_ZN9Node_List4pushEP4Node.exit.i.i
  ret ptr %1
}